; ModuleID = '40/1602.c'
source_filename = "40/1602.c"
target datalayout = "e-m:e-p270:32:32-p271:32:32-p272:64:64-i64:64-f80:128-n8:16:32:64-S128"
target triple = "x86_64-pc-linux-gnu"

@.str = private unnamed_addr constant [16 x i8] c"%lf%lf%lf%lf%lf\00", align 1
@.str.1 = private unnamed_addr constant [14 x i8] c"Invalid input\00", align 1
@.str.2 = private unnamed_addr constant [5 x i8] c"%.4f\00", align 1

; Function Attrs: noinline nounwind uwtable
define dso_local double @square(double %0, double %1, double %2, double %3, double %4) #0 {
  %6 = alloca double, align 8
  %7 = alloca double, align 8
  %8 = alloca double, align 8
  %9 = alloca double, align 8
  %10 = alloca double, align 8
  %11 = alloca double, align 8
  %12 = alloca double, align 8
  store double %0, double* %6, align 8
  store double %1, double* %7, align 8
  store double %2, double* %8, align 8
  store double %3, double* %9, align 8
  store double %4, double* %10, align 8
  %13 = load double, double* %6, align 8
  %14 = load double, double* %7, align 8
  %15 = fadd double %13, %14
  %16 = load double, double* %8, align 8
  %17 = fadd double %15, %16
  %18 = load double, double* %9, align 8
  %19 = fadd double %17, %18
  %20 = fdiv double %19, 2.000000e+00
  store double %20, double* %12, align 8
  %21 = load double, double* %12, align 8
  %22 = load double, double* %6, align 8
  %23 = fsub double %21, %22
  %24 = load double, double* %12, align 8
  %25 = load double, double* %7, align 8
  %26 = fsub double %24, %25
  %27 = fmul double %23, %26
  %28 = load double, double* %12, align 8
  %29 = load double, double* %8, align 8
  %30 = fsub double %28, %29
  %31 = fmul double %27, %30
  %32 = load double, double* %12, align 8
  %33 = load double, double* %9, align 8
  %34 = fsub double %32, %33
  %35 = fmul double %31, %34
  %36 = load double, double* %6, align 8
  %37 = load double, double* %7, align 8
  %38 = fmul double %36, %37
  %39 = load double, double* %8, align 8
  %40 = fmul double %38, %39
  %41 = load double, double* %9, align 8
  %42 = fmul double %40, %41
  %43 = load double, double* %10, align 8
  %44 = call double @cos(double %43) #3
  %45 = fmul double %42, %44
  %46 = load double, double* %10, align 8
  %47 = call double @cos(double %46) #3
  %48 = fmul double %45, %47
  %49 = fsub double %35, %48
  %50 = call double @sqrt(double %49) #3
  store double %50, double* %11, align 8
  %51 = load double, double* %11, align 8
  ret double %51
}

; Function Attrs: nounwind
declare dso_local double @sqrt(double) #1

; Function Attrs: nounwind
declare dso_local double @cos(double) #1

; Function Attrs: noinline nounwind uwtable
define dso_local void @main() #0 {
  %1 = alloca double, align 8
  %2 = alloca double, align 8
  %3 = alloca double, align 8
  %4 = alloca double, align 8
  %5 = alloca double, align 8
  %6 = alloca double, align 8
  %7 = alloca double, align 8
  %8 = call i32 (i8*, ...) @__isoc99_scanf(i8* getelementptr inbounds ([16 x i8], [16 x i8]* @.str, i64 0, i64 0), double* %1, double* %2, double* %3, double* %4, double* %5)
  %9 = load double, double* %1, align 8
  %10 = load double, double* %2, align 8
  %11 = fadd double %9, %10
  %12 = load double, double* %3, align 8
  %13 = fadd double %11, %12
  %14 = load double, double* %4, align 8
  %15 = fadd double %13, %14
  %16 = fdiv double %15, 2.000000e+00
  store double %16, double* %7, align 8
  %17 = load double, double* %5, align 8
  %18 = fmul double %17, 1.000000e+02
  %19 = fdiv double %18, 3.600000e+02
  store double %19, double* %5, align 8
  %20 = load double, double* %7, align 8
  %21 = load double, double* %1, align 8
  %22 = fsub double %20, %21
  %23 = load double, double* %7, align 8
  %24 = load double, double* %2, align 8
  %25 = fsub double %23, %24
  %26 = fmul double %22, %25
  %27 = load double, double* %7, align 8
  %28 = load double, double* %3, align 8
  %29 = fsub double %27, %28
  %30 = fmul double %26, %29
  %31 = load double, double* %7, align 8
  %32 = load double, double* %4, align 8
  %33 = fsub double %31, %32
  %34 = fmul double %30, %33
  %35 = load double, double* %1, align 8
  %36 = load double, double* %2, align 8
  %37 = fmul double %35, %36
  %38 = load double, double* %3, align 8
  %39 = fmul double %37, %38
  %40 = load double, double* %4, align 8
  %41 = fmul double %39, %40
  %42 = load double, double* %5, align 8
  %43 = call double @cos(double %42) #3
  %44 = fmul double %41, %43
  %45 = load double, double* %5, align 8
  %46 = call double @cos(double %45) #3
  %47 = fmul double %44, %46
  %48 = fsub double %34, %47
  %49 = fcmp olt double %48, 0.000000e+00
  br i1 %49, label %50, label %52

50:                                               ; preds = %0
  %51 = call i32 (i8*, ...) @printf(i8* getelementptr inbounds ([14 x i8], [14 x i8]* @.str.1, i64 0, i64 0))
  br label %61

52:                                               ; preds = %0
  %53 = load double, double* %1, align 8
  %54 = load double, double* %2, align 8
  %55 = load double, double* %3, align 8
  %56 = load double, double* %4, align 8
  %57 = load double, double* %5, align 8
  %58 = call double @square(double %53, double %54, double %55, double %56, double %57)
  store double %58, double* %6, align 8
  %59 = load double, double* %6, align 8
  %60 = call i32 (i8*, ...) @printf(i8* getelementptr inbounds ([5 x i8], [5 x i8]* @.str.2, i64 0, i64 0), double %59)
  br label %61

61:                                               ; preds = %52, %50
  ret void
}

declare dso_local i32 @__isoc99_scanf(i8*, ...) #2

declare dso_local i32 @printf(i8*, ...) #2


!llvm.module.flags = !{!0}
!llvm.ident = !{!1}

!0 = !{i32 1, !"wchar_size", i32 4}
!1 = !{!"clang version 10.0.0-4ubuntu1 "}
